Archive member included because of file (symbol)

/Users/User/Desktop/STM32F4_Examples/01_Blinky/lib/STM32F4xx_StdPeriph_Driver/libstdperiph.a(stm32f4xx_rcc.o)
                              /Users/User/Desktop/STM32F4_Examples/01_Blinky/build/main.o (RCC_AHB1PeriphClockCmd)
/Users/User/Desktop/STM32F4_Examples/01_Blinky/lib/STM32F4xx_StdPeriph_Driver/libstdperiph.a(stm32f4xx_gpio.o)
                              /Users/User/Desktop/STM32F4_Examples/01_Blinky/build/main.o (GPIO_Init)

Allocating common symbols
Common symbol       size              file

msTicks             0x4               /Users/User/Desktop/STM32F4_Examples/01_Blinky/build/main.o

Discarded input sections

 .data          0x0000000000000000        0x0 /Users/User/Desktop/STM32F4_Examples/01_Blinky/build/main.o
 .bss           0x0000000000000000        0x0 /Users/User/Desktop/STM32F4_Examples/01_Blinky/build/main.o
 .data          0x0000000000000000        0x0 /Users/User/Desktop/STM32F4_Examples/01_Blinky/build/startup_stm32f4xx.o
 .bss           0x0000000000000000        0x0 /Users/User/Desktop/STM32F4_Examples/01_Blinky/build/startup_stm32f4xx.o
 .data          0x0000000000000000        0x0 /Users/User/Desktop/STM32F4_Examples/01_Blinky/build/stm32f4xx_it.o
 .bss           0x0000000000000000        0x0 /Users/User/Desktop/STM32F4_Examples/01_Blinky/build/stm32f4xx_it.o
 .bss           0x0000000000000000        0x0 /Users/User/Desktop/STM32F4_Examples/01_Blinky/build/system_stm32f4xx.o
 .text          0x0000000000000000       0x18 /Users/User/Desktop/STM32F4_Examples/01_Blinky/build/CortexM4asmOps.o
 .data          0x0000000000000000        0x0 /Users/User/Desktop/STM32F4_Examples/01_Blinky/build/CortexM4asmOps.o
 .bss           0x0000000000000000        0x0 /Users/User/Desktop/STM32F4_Examples/01_Blinky/build/CortexM4asmOps.o
 .ARM.attributes
                0x0000000000000000       0x21 /Users/User/Desktop/STM32F4_Examples/01_Blinky/build/CortexM4asmOps.o
 .bss           0x0000000000000000        0x0 /Users/User/Desktop/STM32F4_Examples/01_Blinky/lib/STM32F4xx_StdPeriph_Driver/libstdperiph.a(stm32f4xx_rcc.o)
 .data          0x0000000000000000        0x0 /Users/User/Desktop/STM32F4_Examples/01_Blinky/lib/STM32F4xx_StdPeriph_Driver/libstdperiph.a(stm32f4xx_gpio.o)
 .bss           0x0000000000000000        0x0 /Users/User/Desktop/STM32F4_Examples/01_Blinky/lib/STM32F4xx_StdPeriph_Driver/libstdperiph.a(stm32f4xx_gpio.o)

Memory Configuration

Name             Origin             Length             Attributes
FLASH            0x0000000008000000 0x0000000000100000 xr
RAM              0x0000000020000000 0x0000000000020000 xrw
CCM              0x0000000010000000 0x0000000000010000 xrw
*default*        0x0000000000000000 0xffffffffffffffff

Linker script and memory map

LOAD /Users/User/Desktop/STM32F4_Examples/01_Blinky/build/main.o
LOAD /Users/User/Desktop/STM32F4_Examples/01_Blinky/build/startup_stm32f4xx.o
LOAD /Users/User/Desktop/STM32F4_Examples/01_Blinky/build/stm32f4xx_it.o
LOAD /Users/User/Desktop/STM32F4_Examples/01_Blinky/build/system_stm32f4xx.o
LOAD /Users/User/Desktop/STM32F4_Examples/01_Blinky/build/CortexM4asmOps.o
LOAD /Users/User/Desktop/STM32F4_Examples/01_Blinky/lib/STM32F4xx_StdPeriph_Driver/libstdperiph.a
LOAD /usr/local/Cellar/gcc-arm-none-eabi-48/20131218/bin/../lib/gcc/arm-none-eabi/4.8.3/../../../../arm-none-eabi/lib/armv7e-m/libc_s.a
LOAD /usr/local/Cellar/gcc-arm-none-eabi-48/20131218/bin/../lib/gcc/arm-none-eabi/4.8.3/armv7e-m/libgcc.a
LOAD /usr/local/Cellar/gcc-arm-none-eabi-48/20131218/bin/../lib/gcc/arm-none-eabi/4.8.3/../../../../arm-none-eabi/lib/armv7e-m/libnosys.a
START GROUP
LOAD /usr/local/Cellar/gcc-arm-none-eabi-48/20131218/bin/../lib/gcc/arm-none-eabi/4.8.3/armv7e-m/libgcc.a
LOAD /usr/local/Cellar/gcc-arm-none-eabi-48/20131218/bin/../lib/gcc/arm-none-eabi/4.8.3/../../../../arm-none-eabi/lib/armv7e-m/libc_s.a
END GROUP
START GROUP
LOAD /usr/local/Cellar/gcc-arm-none-eabi-48/20131218/bin/../lib/gcc/arm-none-eabi/4.8.3/armv7e-m/libgcc.a
LOAD /usr/local/Cellar/gcc-arm-none-eabi-48/20131218/bin/../lib/gcc/arm-none-eabi/4.8.3/../../../../arm-none-eabi/lib/armv7e-m/libc_s.a
END GROUP
                0x0000000020020000                _estack = 0x20020000
                0x0000000000000000                _Min_Heap_Size = 0x0
                0x0000000000000400                _Min_Stack_Size = 0x400

.isr_vector     0x0000000008000000      0x188
                0x0000000008000000                . = ALIGN (0x4)
 *(.isr_vector)
 .isr_vector    0x0000000008000000      0x188 /Users/User/Desktop/STM32F4_Examples/01_Blinky/build/startup_stm32f4xx.o
                0x0000000008000000                g_pfnVectors
                0x0000000008000188                . = ALIGN (0x4)

.text           0x0000000008000188      0xb1c
                0x0000000008000188                . = ALIGN (0x4)
 *(.text)
 .text          0x0000000008000188       0xb4 /Users/User/Desktop/STM32F4_Examples/01_Blinky/build/main.o
                0x0000000008000188                SysTick_Handler
                0x0000000008000198                setSysTick
                0x00000000080001dc                init_GPIO
 .text          0x000000000800023c       0x70 /Users/User/Desktop/STM32F4_Examples/01_Blinky/build/startup_stm32f4xx.o
                0x000000000800023c                DMA1_Stream3_IRQHandler
                0x000000000800023c                HASH_RNG_IRQHandler
                0x000000000800023c                EXTI2_IRQHandler
                0x000000000800023c                TIM8_CC_IRQHandler
                0x000000000800023c                DebugMon_Handler
                0x000000000800023c                TIM1_CC_IRQHandler
                0x000000000800023c                DMA2_Stream5_IRQHandler
                0x000000000800023c                DMA1_Stream5_IRQHandler
                0x000000000800023c                PVD_IRQHandler
                0x000000000800023c                SDIO_IRQHandler
                0x000000000800023c                TAMP_STAMP_IRQHandler
                0x000000000800023c                PendSV_Handler
                0x000000000800023c                CAN2_RX1_IRQHandler
                0x000000000800023c                EXTI3_IRQHandler
                0x000000000800023c                TIM8_TRG_COM_TIM14_IRQHandler
                0x000000000800023c                TIM1_UP_TIM10_IRQHandler
                0x000000000800023c                TIM8_UP_TIM13_IRQHandler
                0x000000000800023c                I2C3_ER_IRQHandler
                0x000000000800023c                EXTI0_IRQHandler
                0x000000000800023c                I2C2_EV_IRQHandler
                0x000000000800023c                DMA1_Stream2_IRQHandler
                0x000000000800023c                CAN1_RX0_IRQHandler
                0x000000000800023c                FPU_IRQHandler
                0x000000000800023c                OTG_HS_WKUP_IRQHandler
                0x000000000800023c                UsageFault_Handler
                0x000000000800023c                CAN2_SCE_IRQHandler
                0x000000000800023c                DMA2_Stream2_IRQHandler
                0x000000000800023c                SPI1_IRQHandler
                0x000000000800023c                TIM6_DAC_IRQHandler
                0x000000000800023c                TIM1_BRK_TIM9_IRQHandler
                0x000000000800023c                DCMI_IRQHandler
                0x000000000800023c                CAN2_RX0_IRQHandler
                0x000000000800023c                DMA2_Stream3_IRQHandler
                0x000000000800023c                USART6_IRQHandler
                0x000000000800023c                USART3_IRQHandler
                0x000000000800023c                CRYP_IRQHandler
                0x000000000800023c                RTC_Alarm_IRQHandler
                0x000000000800023c                CAN1_RX1_IRQHandler
                0x000000000800023c                UART5_IRQHandler
                0x000000000800023c                DMA2_Stream0_IRQHandler
                0x000000000800023c                TIM4_IRQHandler
                0x000000000800023c                I2C1_EV_IRQHandler
                0x000000000800023c                DMA1_Stream6_IRQHandler
                0x000000000800023c                DMA1_Stream1_IRQHandler
                0x000000000800023c                UART4_IRQHandler
                0x000000000800023c                TIM3_IRQHandler
                0x000000000800023c                RCC_IRQHandler
                0x000000000800023c                TIM8_BRK_TIM12_IRQHandler
                0x000000000800023c                Default_Handler
                0x000000000800023c                EXTI15_10_IRQHandler
                0x000000000800023c                ADC_IRQHandler
                0x000000000800023c                DMA1_Stream7_IRQHandler
                0x000000000800023c                TIM7_IRQHandler
                0x000000000800023c                CAN2_TX_IRQHandler
                0x000000000800023c                TIM5_IRQHandler
                0x000000000800023c                DMA2_Stream7_IRQHandler
                0x000000000800023c                I2C3_EV_IRQHandler
                0x000000000800023c                EXTI9_5_IRQHandler
                0x000000000800023c                RTC_WKUP_IRQHandler
                0x000000000800023c                ETH_WKUP_IRQHandler
                0x000000000800023c                SPI2_IRQHandler
                0x000000000800023c                OTG_HS_EP1_IN_IRQHandler
                0x000000000800023c                MemManage_Handler
                0x000000000800023c                DMA1_Stream0_IRQHandler
                0x000000000800023c                CAN1_TX_IRQHandler
                0x000000000800023c                SVC_Handler
                0x000000000800023c                EXTI4_IRQHandler
                0x000000000800023c                FSMC_IRQHandler
                0x000000000800023c                ETH_IRQHandler
                0x000000000800023c                OTG_HS_EP1_OUT_IRQHandler
                0x000000000800023c                WWDG_IRQHandler
                0x000000000800023c                TIM2_IRQHandler
                0x000000000800023c                OTG_FS_WKUP_IRQHandler
                0x000000000800023c                TIM1_TRG_COM_TIM11_IRQHandler
                0x000000000800023c                OTG_HS_IRQHandler
                0x000000000800023c                EXTI1_IRQHandler
                0x000000000800023c                USART2_IRQHandler
                0x000000000800023c                I2C2_ER_IRQHandler
                0x000000000800023c                DMA2_Stream1_IRQHandler
                0x000000000800023c                CAN1_SCE_IRQHandler
                0x000000000800023c                FLASH_IRQHandler
                0x000000000800023c                DMA2_Stream4_IRQHandler
                0x000000000800023c                BusFault_Handler
                0x000000000800023c                USART1_IRQHandler
                0x000000000800023c                OTG_FS_IRQHandler
                0x000000000800023c                SPI3_IRQHandler
                0x000000000800023c                DMA1_Stream4_IRQHandler
                0x000000000800023c                I2C1_ER_IRQHandler
                0x000000000800023c                DMA2_Stream6_IRQHandler
                0x0000000008000240                Reset_Handler
 .text          0x00000000080002ac       0x24 /Users/User/Desktop/STM32F4_Examples/01_Blinky/build/stm32f4xx_it.o
                0x00000000080002ac                NMI_Handler
                0x00000000080002b0                HardFault_Handler
 .text          0x00000000080002d0      0x158 /Users/User/Desktop/STM32F4_Examples/01_Blinky/build/system_stm32f4xx.o
                0x00000000080002d0                SystemInit
                0x00000000080003c0                SystemCoreClockUpdate
 .text          0x0000000008000428      0x53c /Users/User/Desktop/STM32F4_Examples/01_Blinky/lib/STM32F4xx_StdPeriph_Driver/libstdperiph.a(stm32f4xx_rcc.o)
                0x0000000008000428                RCC_DeInit
                0x0000000008000478                RCC_HSEConfig
                0x0000000008000488                RCC_WaitForHSEStartUp
                0x00000000080004c0                RCC_AdjustHSICalibrationValue
                0x00000000080004d4                RCC_HSICmd
                0x00000000080004e0                RCC_LSEConfig
                0x0000000008000500                RCC_LSICmd
                0x000000000800050c                RCC_PLLConfig
                0x0000000008000530                RCC_PLLCmd
                0x000000000800053c                RCC_PLLI2SConfig
                0x0000000008000550                RCC_PLLI2SCmd
                0x000000000800055c                RCC_PLLSAIConfig
                0x0000000008000574                RCC_PLLSAICmd
                0x0000000008000580                RCC_ClockSecuritySystemCmd
                0x000000000800058c                RCC_MCO1Config
                0x00000000080005a0                RCC_MCO2Config
                0x00000000080005b4                RCC_SYSCLKConfig
                0x00000000080005c8                RCC_GetSYSCLKSource
                0x00000000080005d8                RCC_HCLKConfig
                0x00000000080005ec                RCC_PCLK1Config
                0x0000000008000600                RCC_PCLK2Config
                0x0000000008000614                RCC_GetClocksFreq
                0x00000000080006a4                RCC_RTCCLKConfig
                0x00000000080006d4                RCC_RTCCLKCmd
                0x00000000080006e0                RCC_BackupResetCmd
                0x00000000080006ec                RCC_I2SCLKConfig
                0x00000000080006f8                RCC_SAIPLLI2SClkDivConfig
                0x0000000008000710                RCC_SAIPLLSAIClkDivConfig
                0x000000000800072c                RCC_SAIBlockACLKConfig
                0x0000000008000744                RCC_SAIBlockBCLKConfig
                0x000000000800075c                RCC_LTDCCLKDivConfig
                0x0000000008000774                RCC_TIMCLKPresConfig
                0x0000000008000780                RCC_AHB1PeriphClockCmd
                0x0000000008000798                RCC_AHB2PeriphClockCmd
                0x00000000080007b0                RCC_AHB3PeriphClockCmd
                0x00000000080007c8                RCC_APB1PeriphClockCmd
                0x00000000080007e0                RCC_APB2PeriphClockCmd
                0x00000000080007f8                RCC_AHB1PeriphResetCmd
                0x0000000008000810                RCC_AHB2PeriphResetCmd
                0x0000000008000828                RCC_AHB3PeriphResetCmd
                0x0000000008000840                RCC_APB1PeriphResetCmd
                0x0000000008000858                RCC_APB2PeriphResetCmd
                0x0000000008000870                RCC_AHB1PeriphClockLPModeCmd
                0x0000000008000888                RCC_AHB2PeriphClockLPModeCmd
                0x00000000080008a0                RCC_AHB3PeriphClockLPModeCmd
                0x00000000080008b8                RCC_APB1PeriphClockLPModeCmd
                0x00000000080008d0                RCC_APB2PeriphClockLPModeCmd
                0x00000000080008e8                RCC_ITConfig
                0x0000000008000900                RCC_GetFlagStatus
                0x0000000008000934                RCC_ClearFlag
                0x0000000008000944                RCC_GetITStatus
                0x0000000008000958                RCC_ClearITPendingBit
 .text          0x0000000008000964      0x2c4 /Users/User/Desktop/STM32F4_Examples/01_Blinky/lib/STM32F4xx_StdPeriph_Driver/libstdperiph.a(stm32f4xx_gpio.o)
                0x0000000008000964                GPIO_DeInit
                0x0000000008000ac0                GPIO_Init
                0x0000000008000b80                GPIO_StructInit
                0x0000000008000b94                GPIO_PinLockConfig
                0x0000000008000bb8                GPIO_ReadInputDataBit
                0x0000000008000bc4                GPIO_ReadInputData
                0x0000000008000bcc                GPIO_ReadOutputDataBit
                0x0000000008000bd8                GPIO_ReadOutputData
                0x0000000008000be0                GPIO_SetBits
                0x0000000008000be4                GPIO_ResetBits
                0x0000000008000be8                GPIO_WriteBit
                0x0000000008000bf4                GPIO_Write
                0x0000000008000bf8                GPIO_ToggleBits
                0x0000000008000c00                GPIO_PinAFConfig
 *(.text*)
 .text.startup  0x0000000008000c28       0x7c /Users/User/Desktop/STM32F4_Examples/01_Blinky/build/main.o
                0x0000000008000c28                main
 *(.rodata)
 *(.rodata*)
 *(.glue_7)
 .glue_7        0x0000000000000000        0x0 linker stubs
 *(.glue_7t)
 .glue_7t       0x0000000000000000        0x0 linker stubs
 *(.eh_frame)
 *(.init)
 *(.fini)
                0x0000000008000ca4                . = ALIGN (0x4)
                0x0000000008000ca4                _etext = .
                0x0000000008000ca4                _exit = .

.vfp11_veneer   0x0000000008000ca4        0x0
 .vfp11_veneer  0x0000000000000000        0x0 linker stubs

.v4_bx          0x0000000008000ca4        0x0
 .v4_bx         0x0000000000000000        0x0 linker stubs

.iplt           0x0000000008000ca4        0x0
 .iplt          0x0000000000000000        0x0 /Users/User/Desktop/STM32F4_Examples/01_Blinky/build/main.o

.rel.dyn        0x0000000008000ca4        0x0
 .rel.iplt      0x0000000000000000        0x0 /Users/User/Desktop/STM32F4_Examples/01_Blinky/build/main.o

.ARM.extab
 *(.ARM.extab* .gnu.linkonce.armextab.*)

.ARM            0x0000000008000ca4        0x0
                0x0000000008000ca4                __exidx_start = .
 *(.ARM.exidx*)
                0x0000000008000ca4                __exidx_end = .

.preinit_array  0x0000000008000ca4        0x0
                0x0000000008000ca4                PROVIDE (__preinit_array_start, .)
 *(.preinit_array*)
                0x0000000008000ca4                PROVIDE (__preinit_array_end, .)

.init_array     0x0000000008000ca4        0x0
                0x0000000008000ca4                PROVIDE (__init_array_start, .)
 *(SORT(.init_array.*))
 *(.init_array*)
                0x0000000008000ca4                PROVIDE (__init_array_end, .)

.fini_array     0x0000000008000ca4        0x0
                0x0000000008000ca4                PROVIDE (__fini_array_start, .)
 *(.fini_array*)
 *(SORT(.fini_array.*))
                0x0000000008000ca4                PROVIDE (__fini_array_end, .)
                0x0000000008000ca4                __sidata = .

.data           0x0000000020000000       0x24 load address 0x0000000008000ca4
                0x0000000020000000                . = ALIGN (0x4)
                0x0000000020000000                _sdata = .
                0x0000000020000000                __data_start__ = _sdata
 *(.data)
 .data          0x0000000020000000       0x14 /Users/User/Desktop/STM32F4_Examples/01_Blinky/build/system_stm32f4xx.o
                0x0000000020000000                AHBPrescTable
                0x0000000020000010                SystemCoreClock
 .data          0x0000000020000014       0x10 /Users/User/Desktop/STM32F4_Examples/01_Blinky/lib/STM32F4xx_StdPeriph_Driver/libstdperiph.a(stm32f4xx_rcc.o)
 *(.data*)
                0x0000000020000024                . = ALIGN (0x4)
                0x0000000020000024                _edata = .
                0x0000000020000024                __data_end__ = _edata

.igot.plt       0x0000000020000024        0x0 load address 0x0000000008000cc8
 .igot.plt      0x0000000000000000        0x0 /Users/User/Desktop/STM32F4_Examples/01_Blinky/build/main.o
                0x0000000020000024                . = ALIGN (0x4)

.bss            0x0000000020000024        0x4 load address 0x0000000008000cc8
                0x0000000020000024                _sbss = .
                0x0000000020000024                __bss_start__ = _sbss
 *(.bss)
 *(.bss*)
 *(COMMON)
 COMMON         0x0000000020000024        0x4 /Users/User/Desktop/STM32F4_Examples/01_Blinky/build/main.o
                0x0000000020000024                msTicks
                0x0000000020000028                . = ALIGN (0x4)
                0x0000000020000028                _ebss = .
                0x0000000020000028                __bss_end__ = _ebss

._user_heap_stack
                0x0000000020000028      0x400 load address 0x0000000008000ccc
                0x0000000020000028                . = ALIGN (0x4)
                0x0000000020000028                PROVIDE (end, .)
                0x0000000020000028                PROVIDE (_end, .)
                0x0000000020000028                . = (. + _Min_Heap_Size)
                0x0000000020000428                . = (. + _Min_Stack_Size)
 *fill*         0x0000000020000028      0x400 
                0x0000000020000428                . = ALIGN (0x4)
OUTPUT(/Users/User/Desktop/STM32F4_Examples/01_Blinky/build/blinky.elf elf32-littlearm)

.debug_info     0x0000000000000000     0x2944
 .debug_info    0x0000000000000000      0xa9a /Users/User/Desktop/STM32F4_Examples/01_Blinky/build/main.o
 .debug_info    0x0000000000000a9a      0x11d /Users/User/Desktop/STM32F4_Examples/01_Blinky/build/startup_stm32f4xx.o
 .debug_info    0x0000000000000bb7      0x128 /Users/User/Desktop/STM32F4_Examples/01_Blinky/build/stm32f4xx_it.o
 .debug_info    0x0000000000000cdf      0x5b6 /Users/User/Desktop/STM32F4_Examples/01_Blinky/build/system_stm32f4xx.o
 .debug_info    0x0000000000001295      0xe96 /Users/User/Desktop/STM32F4_Examples/01_Blinky/lib/STM32F4xx_StdPeriph_Driver/libstdperiph.a(stm32f4xx_rcc.o)
 .debug_info    0x000000000000212b      0x819 /Users/User/Desktop/STM32F4_Examples/01_Blinky/lib/STM32F4xx_StdPeriph_Driver/libstdperiph.a(stm32f4xx_gpio.o)

.debug_abbrev   0x0000000000000000      0x9de
 .debug_abbrev  0x0000000000000000      0x2fe /Users/User/Desktop/STM32F4_Examples/01_Blinky/build/main.o
 .debug_abbrev  0x00000000000002fe       0xe5 /Users/User/Desktop/STM32F4_Examples/01_Blinky/build/startup_stm32f4xx.o
 .debug_abbrev  0x00000000000003e3       0x67 /Users/User/Desktop/STM32F4_Examples/01_Blinky/build/stm32f4xx_it.o
 .debug_abbrev  0x000000000000044a      0x145 /Users/User/Desktop/STM32F4_Examples/01_Blinky/build/system_stm32f4xx.o
 .debug_abbrev  0x000000000000058f      0x257 /Users/User/Desktop/STM32F4_Examples/01_Blinky/lib/STM32F4xx_StdPeriph_Driver/libstdperiph.a(stm32f4xx_rcc.o)
 .debug_abbrev  0x00000000000007e6      0x1f8 /Users/User/Desktop/STM32F4_Examples/01_Blinky/lib/STM32F4xx_StdPeriph_Driver/libstdperiph.a(stm32f4xx_gpio.o)

.debug_loc      0x0000000000000000     0x1367
 .debug_loc     0x0000000000000000       0xe8 /Users/User/Desktop/STM32F4_Examples/01_Blinky/build/main.o
 .debug_loc     0x00000000000000e8       0x5e /Users/User/Desktop/STM32F4_Examples/01_Blinky/build/startup_stm32f4xx.o
 .debug_loc     0x0000000000000146      0x144 /Users/User/Desktop/STM32F4_Examples/01_Blinky/build/system_stm32f4xx.o
 .debug_loc     0x000000000000028a      0xd25 /Users/User/Desktop/STM32F4_Examples/01_Blinky/lib/STM32F4xx_StdPeriph_Driver/libstdperiph.a(stm32f4xx_rcc.o)
 .debug_loc     0x0000000000000faf      0x3b8 /Users/User/Desktop/STM32F4_Examples/01_Blinky/lib/STM32F4xx_StdPeriph_Driver/libstdperiph.a(stm32f4xx_gpio.o)

.debug_aranges  0x0000000000000000       0xc8
 .debug_aranges
                0x0000000000000000       0x28 /Users/User/Desktop/STM32F4_Examples/01_Blinky/build/main.o
 .debug_aranges
                0x0000000000000028       0x20 /Users/User/Desktop/STM32F4_Examples/01_Blinky/build/startup_stm32f4xx.o
 .debug_aranges
                0x0000000000000048       0x20 /Users/User/Desktop/STM32F4_Examples/01_Blinky/build/stm32f4xx_it.o
 .debug_aranges
                0x0000000000000068       0x20 /Users/User/Desktop/STM32F4_Examples/01_Blinky/build/system_stm32f4xx.o
 .debug_aranges
                0x0000000000000088       0x20 /Users/User/Desktop/STM32F4_Examples/01_Blinky/lib/STM32F4xx_StdPeriph_Driver/libstdperiph.a(stm32f4xx_rcc.o)
 .debug_aranges
                0x00000000000000a8       0x20 /Users/User/Desktop/STM32F4_Examples/01_Blinky/lib/STM32F4xx_StdPeriph_Driver/libstdperiph.a(stm32f4xx_gpio.o)

.debug_ranges   0x0000000000000000       0xb8
 .debug_ranges  0x0000000000000000       0x88 /Users/User/Desktop/STM32F4_Examples/01_Blinky/build/main.o
 .debug_ranges  0x0000000000000088       0x18 /Users/User/Desktop/STM32F4_Examples/01_Blinky/build/system_stm32f4xx.o
 .debug_ranges  0x00000000000000a0       0x18 /Users/User/Desktop/STM32F4_Examples/01_Blinky/lib/STM32F4xx_StdPeriph_Driver/libstdperiph.a(stm32f4xx_rcc.o)

.debug_line     0x0000000000000000      0xac1
 .debug_line    0x0000000000000000      0x257 /Users/User/Desktop/STM32F4_Examples/01_Blinky/build/main.o
 .debug_line    0x0000000000000257       0x58 /Users/User/Desktop/STM32F4_Examples/01_Blinky/build/startup_stm32f4xx.o
 .debug_line    0x00000000000002af       0xf7 /Users/User/Desktop/STM32F4_Examples/01_Blinky/build/stm32f4xx_it.o
 .debug_line    0x00000000000003a6      0x199 /Users/User/Desktop/STM32F4_Examples/01_Blinky/build/system_stm32f4xx.o
 .debug_line    0x000000000000053f      0x31b /Users/User/Desktop/STM32F4_Examples/01_Blinky/lib/STM32F4xx_StdPeriph_Driver/libstdperiph.a(stm32f4xx_rcc.o)
 .debug_line    0x000000000000085a      0x267 /Users/User/Desktop/STM32F4_Examples/01_Blinky/lib/STM32F4xx_StdPeriph_Driver/libstdperiph.a(stm32f4xx_gpio.o)

.debug_str      0x0000000000000000     0x14e2
 .debug_str     0x0000000000000000      0x9a4 /Users/User/Desktop/STM32F4_Examples/01_Blinky/build/main.o
                                        0x9ea (size before relaxing)
 .debug_str     0x00000000000009a4       0xa0 /Users/User/Desktop/STM32F4_Examples/01_Blinky/build/startup_stm32f4xx.o
                                        0x17e (size before relaxing)
 .debug_str     0x0000000000000a44       0x8f /Users/User/Desktop/STM32F4_Examples/01_Blinky/build/stm32f4xx_it.o
                                        0x1ff (size before relaxing)
 .debug_str     0x0000000000000ad3      0x170 /Users/User/Desktop/STM32F4_Examples/01_Blinky/build/system_stm32f4xx.o
                                        0x3a9 (size before relaxing)
 .debug_str     0x0000000000000c43      0x761 /Users/User/Desktop/STM32F4_Examples/01_Blinky/lib/STM32F4xx_StdPeriph_Driver/libstdperiph.a(stm32f4xx_rcc.o)
                                        0x9b2 (size before relaxing)
 .debug_str     0x00000000000013a4      0x13e /Users/User/Desktop/STM32F4_Examples/01_Blinky/lib/STM32F4xx_StdPeriph_Driver/libstdperiph.a(stm32f4xx_gpio.o)
                                        0x4e4 (size before relaxing)

.comment        0x0000000000000000       0x70
 .comment       0x0000000000000000       0x70 /Users/User/Desktop/STM32F4_Examples/01_Blinky/build/main.o
                                         0x71 (size before relaxing)
 .comment       0x0000000000000000       0x71 /Users/User/Desktop/STM32F4_Examples/01_Blinky/build/startup_stm32f4xx.o
 .comment       0x0000000000000000       0x71 /Users/User/Desktop/STM32F4_Examples/01_Blinky/build/stm32f4xx_it.o
 .comment       0x0000000000000000       0x71 /Users/User/Desktop/STM32F4_Examples/01_Blinky/build/system_stm32f4xx.o
 .comment       0x0000000000000000       0x71 /Users/User/Desktop/STM32F4_Examples/01_Blinky/lib/STM32F4xx_StdPeriph_Driver/libstdperiph.a(stm32f4xx_rcc.o)
 .comment       0x0000000000000000       0x71 /Users/User/Desktop/STM32F4_Examples/01_Blinky/lib/STM32F4xx_StdPeriph_Driver/libstdperiph.a(stm32f4xx_gpio.o)

.ARM.attributes
                0x0000000000000000       0x31
 .ARM.attributes
                0x0000000000000000       0x33 /Users/User/Desktop/STM32F4_Examples/01_Blinky/build/main.o
 .ARM.attributes
                0x0000000000000033       0x33 /Users/User/Desktop/STM32F4_Examples/01_Blinky/build/startup_stm32f4xx.o
 .ARM.attributes
                0x0000000000000066       0x33 /Users/User/Desktop/STM32F4_Examples/01_Blinky/build/stm32f4xx_it.o
 .ARM.attributes
                0x0000000000000099       0x33 /Users/User/Desktop/STM32F4_Examples/01_Blinky/build/system_stm32f4xx.o
 .ARM.attributes
                0x00000000000000cc       0x33 /Users/User/Desktop/STM32F4_Examples/01_Blinky/lib/STM32F4xx_StdPeriph_Driver/libstdperiph.a(stm32f4xx_rcc.o)
 .ARM.attributes
                0x00000000000000ff       0x33 /Users/User/Desktop/STM32F4_Examples/01_Blinky/lib/STM32F4xx_StdPeriph_Driver/libstdperiph.a(stm32f4xx_gpio.o)

.debug_frame    0x0000000000000000      0x608
 .debug_frame   0x0000000000000000       0x70 /Users/User/Desktop/STM32F4_Examples/01_Blinky/build/main.o
 .debug_frame   0x0000000000000070       0x40 /Users/User/Desktop/STM32F4_Examples/01_Blinky/build/startup_stm32f4xx.o
 .debug_frame   0x00000000000000b0       0xa0 /Users/User/Desktop/STM32F4_Examples/01_Blinky/build/stm32f4xx_it.o
 .debug_frame   0x0000000000000150       0x34 /Users/User/Desktop/STM32F4_Examples/01_Blinky/build/system_stm32f4xx.o
 .debug_frame   0x0000000000000184      0x36c /Users/User/Desktop/STM32F4_Examples/01_Blinky/lib/STM32F4xx_StdPeriph_Driver/libstdperiph.a(stm32f4xx_rcc.o)
 .debug_frame   0x00000000000004f0      0x118 /Users/User/Desktop/STM32F4_Examples/01_Blinky/lib/STM32F4xx_StdPeriph_Driver/libstdperiph.a(stm32f4xx_gpio.o)

Cross Reference Table

Symbol                                            File
ADC_IRQHandler                                    /Users/User/Desktop/STM32F4_Examples/01_Blinky/build/startup_stm32f4xx.o
AHBPrescTable                                     /Users/User/Desktop/STM32F4_Examples/01_Blinky/build/system_stm32f4xx.o
BusFault_Handler                                  /Users/User/Desktop/STM32F4_Examples/01_Blinky/build/startup_stm32f4xx.o
CAN1_RX0_IRQHandler                               /Users/User/Desktop/STM32F4_Examples/01_Blinky/build/startup_stm32f4xx.o
CAN1_RX1_IRQHandler                               /Users/User/Desktop/STM32F4_Examples/01_Blinky/build/startup_stm32f4xx.o
CAN1_SCE_IRQHandler                               /Users/User/Desktop/STM32F4_Examples/01_Blinky/build/startup_stm32f4xx.o
CAN1_TX_IRQHandler                                /Users/User/Desktop/STM32F4_Examples/01_Blinky/build/startup_stm32f4xx.o
CAN2_RX0_IRQHandler                               /Users/User/Desktop/STM32F4_Examples/01_Blinky/build/startup_stm32f4xx.o
CAN2_RX1_IRQHandler                               /Users/User/Desktop/STM32F4_Examples/01_Blinky/build/startup_stm32f4xx.o
CAN2_SCE_IRQHandler                               /Users/User/Desktop/STM32F4_Examples/01_Blinky/build/startup_stm32f4xx.o
CAN2_TX_IRQHandler                                /Users/User/Desktop/STM32F4_Examples/01_Blinky/build/startup_stm32f4xx.o
CRYP_IRQHandler                                   /Users/User/Desktop/STM32F4_Examples/01_Blinky/build/startup_stm32f4xx.o
DCMI_IRQHandler                                   /Users/User/Desktop/STM32F4_Examples/01_Blinky/build/startup_stm32f4xx.o
DMA1_Stream0_IRQHandler                           /Users/User/Desktop/STM32F4_Examples/01_Blinky/build/startup_stm32f4xx.o
DMA1_Stream1_IRQHandler                           /Users/User/Desktop/STM32F4_Examples/01_Blinky/build/startup_stm32f4xx.o
DMA1_Stream2_IRQHandler                           /Users/User/Desktop/STM32F4_Examples/01_Blinky/build/startup_stm32f4xx.o
DMA1_Stream3_IRQHandler                           /Users/User/Desktop/STM32F4_Examples/01_Blinky/build/startup_stm32f4xx.o
DMA1_Stream4_IRQHandler                           /Users/User/Desktop/STM32F4_Examples/01_Blinky/build/startup_stm32f4xx.o
DMA1_Stream5_IRQHandler                           /Users/User/Desktop/STM32F4_Examples/01_Blinky/build/startup_stm32f4xx.o
DMA1_Stream6_IRQHandler                           /Users/User/Desktop/STM32F4_Examples/01_Blinky/build/startup_stm32f4xx.o
DMA1_Stream7_IRQHandler                           /Users/User/Desktop/STM32F4_Examples/01_Blinky/build/startup_stm32f4xx.o
DMA2_Stream0_IRQHandler                           /Users/User/Desktop/STM32F4_Examples/01_Blinky/build/startup_stm32f4xx.o
DMA2_Stream1_IRQHandler                           /Users/User/Desktop/STM32F4_Examples/01_Blinky/build/startup_stm32f4xx.o
DMA2_Stream2_IRQHandler                           /Users/User/Desktop/STM32F4_Examples/01_Blinky/build/startup_stm32f4xx.o
DMA2_Stream3_IRQHandler                           /Users/User/Desktop/STM32F4_Examples/01_Blinky/build/startup_stm32f4xx.o
DMA2_Stream4_IRQHandler                           /Users/User/Desktop/STM32F4_Examples/01_Blinky/build/startup_stm32f4xx.o
DMA2_Stream5_IRQHandler                           /Users/User/Desktop/STM32F4_Examples/01_Blinky/build/startup_stm32f4xx.o
DMA2_Stream6_IRQHandler                           /Users/User/Desktop/STM32F4_Examples/01_Blinky/build/startup_stm32f4xx.o
DMA2_Stream7_IRQHandler                           /Users/User/Desktop/STM32F4_Examples/01_Blinky/build/startup_stm32f4xx.o
DebugMon_Handler                                  /Users/User/Desktop/STM32F4_Examples/01_Blinky/build/startup_stm32f4xx.o
Default_Handler                                   /Users/User/Desktop/STM32F4_Examples/01_Blinky/build/startup_stm32f4xx.o
ETH_IRQHandler                                    /Users/User/Desktop/STM32F4_Examples/01_Blinky/build/startup_stm32f4xx.o
ETH_WKUP_IRQHandler                               /Users/User/Desktop/STM32F4_Examples/01_Blinky/build/startup_stm32f4xx.o
EXTI0_IRQHandler                                  /Users/User/Desktop/STM32F4_Examples/01_Blinky/build/startup_stm32f4xx.o
EXTI15_10_IRQHandler                              /Users/User/Desktop/STM32F4_Examples/01_Blinky/build/startup_stm32f4xx.o
EXTI1_IRQHandler                                  /Users/User/Desktop/STM32F4_Examples/01_Blinky/build/startup_stm32f4xx.o
EXTI2_IRQHandler                                  /Users/User/Desktop/STM32F4_Examples/01_Blinky/build/startup_stm32f4xx.o
EXTI3_IRQHandler                                  /Users/User/Desktop/STM32F4_Examples/01_Blinky/build/startup_stm32f4xx.o
EXTI4_IRQHandler                                  /Users/User/Desktop/STM32F4_Examples/01_Blinky/build/startup_stm32f4xx.o
EXTI9_5_IRQHandler                                /Users/User/Desktop/STM32F4_Examples/01_Blinky/build/startup_stm32f4xx.o
FLASH_IRQHandler                                  /Users/User/Desktop/STM32F4_Examples/01_Blinky/build/startup_stm32f4xx.o
FPU_IRQHandler                                    /Users/User/Desktop/STM32F4_Examples/01_Blinky/build/startup_stm32f4xx.o
FSMC_IRQHandler                                   /Users/User/Desktop/STM32F4_Examples/01_Blinky/build/startup_stm32f4xx.o
GPIO_DeInit                                       /Users/User/Desktop/STM32F4_Examples/01_Blinky/lib/STM32F4xx_StdPeriph_Driver/libstdperiph.a(stm32f4xx_gpio.o)
GPIO_Init                                         /Users/User/Desktop/STM32F4_Examples/01_Blinky/lib/STM32F4xx_StdPeriph_Driver/libstdperiph.a(stm32f4xx_gpio.o)
                                                  /Users/User/Desktop/STM32F4_Examples/01_Blinky/build/main.o
GPIO_PinAFConfig                                  /Users/User/Desktop/STM32F4_Examples/01_Blinky/lib/STM32F4xx_StdPeriph_Driver/libstdperiph.a(stm32f4xx_gpio.o)
GPIO_PinLockConfig                                /Users/User/Desktop/STM32F4_Examples/01_Blinky/lib/STM32F4xx_StdPeriph_Driver/libstdperiph.a(stm32f4xx_gpio.o)
GPIO_ReadInputData                                /Users/User/Desktop/STM32F4_Examples/01_Blinky/lib/STM32F4xx_StdPeriph_Driver/libstdperiph.a(stm32f4xx_gpio.o)
GPIO_ReadInputDataBit                             /Users/User/Desktop/STM32F4_Examples/01_Blinky/lib/STM32F4xx_StdPeriph_Driver/libstdperiph.a(stm32f4xx_gpio.o)
                                                  /Users/User/Desktop/STM32F4_Examples/01_Blinky/build/main.o
GPIO_ReadOutputData                               /Users/User/Desktop/STM32F4_Examples/01_Blinky/lib/STM32F4xx_StdPeriph_Driver/libstdperiph.a(stm32f4xx_gpio.o)
GPIO_ReadOutputDataBit                            /Users/User/Desktop/STM32F4_Examples/01_Blinky/lib/STM32F4xx_StdPeriph_Driver/libstdperiph.a(stm32f4xx_gpio.o)
GPIO_ResetBits                                    /Users/User/Desktop/STM32F4_Examples/01_Blinky/lib/STM32F4xx_StdPeriph_Driver/libstdperiph.a(stm32f4xx_gpio.o)
GPIO_SetBits                                      /Users/User/Desktop/STM32F4_Examples/01_Blinky/lib/STM32F4xx_StdPeriph_Driver/libstdperiph.a(stm32f4xx_gpio.o)
GPIO_StructInit                                   /Users/User/Desktop/STM32F4_Examples/01_Blinky/lib/STM32F4xx_StdPeriph_Driver/libstdperiph.a(stm32f4xx_gpio.o)
GPIO_ToggleBits                                   /Users/User/Desktop/STM32F4_Examples/01_Blinky/lib/STM32F4xx_StdPeriph_Driver/libstdperiph.a(stm32f4xx_gpio.o)
                                                  /Users/User/Desktop/STM32F4_Examples/01_Blinky/build/main.o
GPIO_Write                                        /Users/User/Desktop/STM32F4_Examples/01_Blinky/lib/STM32F4xx_StdPeriph_Driver/libstdperiph.a(stm32f4xx_gpio.o)
GPIO_WriteBit                                     /Users/User/Desktop/STM32F4_Examples/01_Blinky/lib/STM32F4xx_StdPeriph_Driver/libstdperiph.a(stm32f4xx_gpio.o)
HASH_RNG_IRQHandler                               /Users/User/Desktop/STM32F4_Examples/01_Blinky/build/startup_stm32f4xx.o
HardFault_Handler                                 /Users/User/Desktop/STM32F4_Examples/01_Blinky/build/stm32f4xx_it.o
                                                  /Users/User/Desktop/STM32F4_Examples/01_Blinky/build/startup_stm32f4xx.o
I2C1_ER_IRQHandler                                /Users/User/Desktop/STM32F4_Examples/01_Blinky/build/startup_stm32f4xx.o
I2C1_EV_IRQHandler                                /Users/User/Desktop/STM32F4_Examples/01_Blinky/build/startup_stm32f4xx.o
I2C2_ER_IRQHandler                                /Users/User/Desktop/STM32F4_Examples/01_Blinky/build/startup_stm32f4xx.o
I2C2_EV_IRQHandler                                /Users/User/Desktop/STM32F4_Examples/01_Blinky/build/startup_stm32f4xx.o
I2C3_ER_IRQHandler                                /Users/User/Desktop/STM32F4_Examples/01_Blinky/build/startup_stm32f4xx.o
I2C3_EV_IRQHandler                                /Users/User/Desktop/STM32F4_Examples/01_Blinky/build/startup_stm32f4xx.o
MemManage_Handler                                 /Users/User/Desktop/STM32F4_Examples/01_Blinky/build/startup_stm32f4xx.o
NMI_Handler                                       /Users/User/Desktop/STM32F4_Examples/01_Blinky/build/stm32f4xx_it.o
                                                  /Users/User/Desktop/STM32F4_Examples/01_Blinky/build/startup_stm32f4xx.o
OTG_FS_IRQHandler                                 /Users/User/Desktop/STM32F4_Examples/01_Blinky/build/startup_stm32f4xx.o
OTG_FS_WKUP_IRQHandler                            /Users/User/Desktop/STM32F4_Examples/01_Blinky/build/startup_stm32f4xx.o
OTG_HS_EP1_IN_IRQHandler                          /Users/User/Desktop/STM32F4_Examples/01_Blinky/build/startup_stm32f4xx.o
OTG_HS_EP1_OUT_IRQHandler                         /Users/User/Desktop/STM32F4_Examples/01_Blinky/build/startup_stm32f4xx.o
OTG_HS_IRQHandler                                 /Users/User/Desktop/STM32F4_Examples/01_Blinky/build/startup_stm32f4xx.o
OTG_HS_WKUP_IRQHandler                            /Users/User/Desktop/STM32F4_Examples/01_Blinky/build/startup_stm32f4xx.o
PVD_IRQHandler                                    /Users/User/Desktop/STM32F4_Examples/01_Blinky/build/startup_stm32f4xx.o
PendSV_Handler                                    /Users/User/Desktop/STM32F4_Examples/01_Blinky/build/startup_stm32f4xx.o
RCC_AHB1PeriphClockCmd                            /Users/User/Desktop/STM32F4_Examples/01_Blinky/lib/STM32F4xx_StdPeriph_Driver/libstdperiph.a(stm32f4xx_rcc.o)
                                                  /Users/User/Desktop/STM32F4_Examples/01_Blinky/build/main.o
RCC_AHB1PeriphClockLPModeCmd                      /Users/User/Desktop/STM32F4_Examples/01_Blinky/lib/STM32F4xx_StdPeriph_Driver/libstdperiph.a(stm32f4xx_rcc.o)
RCC_AHB1PeriphResetCmd                            /Users/User/Desktop/STM32F4_Examples/01_Blinky/lib/STM32F4xx_StdPeriph_Driver/libstdperiph.a(stm32f4xx_rcc.o)
                                                  /Users/User/Desktop/STM32F4_Examples/01_Blinky/lib/STM32F4xx_StdPeriph_Driver/libstdperiph.a(stm32f4xx_gpio.o)
RCC_AHB2PeriphClockCmd                            /Users/User/Desktop/STM32F4_Examples/01_Blinky/lib/STM32F4xx_StdPeriph_Driver/libstdperiph.a(stm32f4xx_rcc.o)
RCC_AHB2PeriphClockLPModeCmd                      /Users/User/Desktop/STM32F4_Examples/01_Blinky/lib/STM32F4xx_StdPeriph_Driver/libstdperiph.a(stm32f4xx_rcc.o)
RCC_AHB2PeriphResetCmd                            /Users/User/Desktop/STM32F4_Examples/01_Blinky/lib/STM32F4xx_StdPeriph_Driver/libstdperiph.a(stm32f4xx_rcc.o)
RCC_AHB3PeriphClockCmd                            /Users/User/Desktop/STM32F4_Examples/01_Blinky/lib/STM32F4xx_StdPeriph_Driver/libstdperiph.a(stm32f4xx_rcc.o)
RCC_AHB3PeriphClockLPModeCmd                      /Users/User/Desktop/STM32F4_Examples/01_Blinky/lib/STM32F4xx_StdPeriph_Driver/libstdperiph.a(stm32f4xx_rcc.o)
RCC_AHB3PeriphResetCmd                            /Users/User/Desktop/STM32F4_Examples/01_Blinky/lib/STM32F4xx_StdPeriph_Driver/libstdperiph.a(stm32f4xx_rcc.o)
RCC_APB1PeriphClockCmd                            /Users/User/Desktop/STM32F4_Examples/01_Blinky/lib/STM32F4xx_StdPeriph_Driver/libstdperiph.a(stm32f4xx_rcc.o)
RCC_APB1PeriphClockLPModeCmd                      /Users/User/Desktop/STM32F4_Examples/01_Blinky/lib/STM32F4xx_StdPeriph_Driver/libstdperiph.a(stm32f4xx_rcc.o)
RCC_APB1PeriphResetCmd                            /Users/User/Desktop/STM32F4_Examples/01_Blinky/lib/STM32F4xx_StdPeriph_Driver/libstdperiph.a(stm32f4xx_rcc.o)
RCC_APB2PeriphClockCmd                            /Users/User/Desktop/STM32F4_Examples/01_Blinky/lib/STM32F4xx_StdPeriph_Driver/libstdperiph.a(stm32f4xx_rcc.o)
RCC_APB2PeriphClockLPModeCmd                      /Users/User/Desktop/STM32F4_Examples/01_Blinky/lib/STM32F4xx_StdPeriph_Driver/libstdperiph.a(stm32f4xx_rcc.o)
RCC_APB2PeriphResetCmd                            /Users/User/Desktop/STM32F4_Examples/01_Blinky/lib/STM32F4xx_StdPeriph_Driver/libstdperiph.a(stm32f4xx_rcc.o)
RCC_AdjustHSICalibrationValue                     /Users/User/Desktop/STM32F4_Examples/01_Blinky/lib/STM32F4xx_StdPeriph_Driver/libstdperiph.a(stm32f4xx_rcc.o)
RCC_BackupResetCmd                                /Users/User/Desktop/STM32F4_Examples/01_Blinky/lib/STM32F4xx_StdPeriph_Driver/libstdperiph.a(stm32f4xx_rcc.o)
RCC_ClearFlag                                     /Users/User/Desktop/STM32F4_Examples/01_Blinky/lib/STM32F4xx_StdPeriph_Driver/libstdperiph.a(stm32f4xx_rcc.o)
RCC_ClearITPendingBit                             /Users/User/Desktop/STM32F4_Examples/01_Blinky/lib/STM32F4xx_StdPeriph_Driver/libstdperiph.a(stm32f4xx_rcc.o)
RCC_ClockSecuritySystemCmd                        /Users/User/Desktop/STM32F4_Examples/01_Blinky/lib/STM32F4xx_StdPeriph_Driver/libstdperiph.a(stm32f4xx_rcc.o)
RCC_DeInit                                        /Users/User/Desktop/STM32F4_Examples/01_Blinky/lib/STM32F4xx_StdPeriph_Driver/libstdperiph.a(stm32f4xx_rcc.o)
RCC_GetClocksFreq                                 /Users/User/Desktop/STM32F4_Examples/01_Blinky/lib/STM32F4xx_StdPeriph_Driver/libstdperiph.a(stm32f4xx_rcc.o)
RCC_GetFlagStatus                                 /Users/User/Desktop/STM32F4_Examples/01_Blinky/lib/STM32F4xx_StdPeriph_Driver/libstdperiph.a(stm32f4xx_rcc.o)
RCC_GetITStatus                                   /Users/User/Desktop/STM32F4_Examples/01_Blinky/lib/STM32F4xx_StdPeriph_Driver/libstdperiph.a(stm32f4xx_rcc.o)
RCC_GetSYSCLKSource                               /Users/User/Desktop/STM32F4_Examples/01_Blinky/lib/STM32F4xx_StdPeriph_Driver/libstdperiph.a(stm32f4xx_rcc.o)
RCC_HCLKConfig                                    /Users/User/Desktop/STM32F4_Examples/01_Blinky/lib/STM32F4xx_StdPeriph_Driver/libstdperiph.a(stm32f4xx_rcc.o)
RCC_HSEConfig                                     /Users/User/Desktop/STM32F4_Examples/01_Blinky/lib/STM32F4xx_StdPeriph_Driver/libstdperiph.a(stm32f4xx_rcc.o)
RCC_HSICmd                                        /Users/User/Desktop/STM32F4_Examples/01_Blinky/lib/STM32F4xx_StdPeriph_Driver/libstdperiph.a(stm32f4xx_rcc.o)
RCC_I2SCLKConfig                                  /Users/User/Desktop/STM32F4_Examples/01_Blinky/lib/STM32F4xx_StdPeriph_Driver/libstdperiph.a(stm32f4xx_rcc.o)
RCC_IRQHandler                                    /Users/User/Desktop/STM32F4_Examples/01_Blinky/build/startup_stm32f4xx.o
RCC_ITConfig                                      /Users/User/Desktop/STM32F4_Examples/01_Blinky/lib/STM32F4xx_StdPeriph_Driver/libstdperiph.a(stm32f4xx_rcc.o)
RCC_LSEConfig                                     /Users/User/Desktop/STM32F4_Examples/01_Blinky/lib/STM32F4xx_StdPeriph_Driver/libstdperiph.a(stm32f4xx_rcc.o)
RCC_LSICmd                                        /Users/User/Desktop/STM32F4_Examples/01_Blinky/lib/STM32F4xx_StdPeriph_Driver/libstdperiph.a(stm32f4xx_rcc.o)
RCC_LTDCCLKDivConfig                              /Users/User/Desktop/STM32F4_Examples/01_Blinky/lib/STM32F4xx_StdPeriph_Driver/libstdperiph.a(stm32f4xx_rcc.o)
RCC_MCO1Config                                    /Users/User/Desktop/STM32F4_Examples/01_Blinky/lib/STM32F4xx_StdPeriph_Driver/libstdperiph.a(stm32f4xx_rcc.o)
RCC_MCO2Config                                    /Users/User/Desktop/STM32F4_Examples/01_Blinky/lib/STM32F4xx_StdPeriph_Driver/libstdperiph.a(stm32f4xx_rcc.o)
RCC_PCLK1Config                                   /Users/User/Desktop/STM32F4_Examples/01_Blinky/lib/STM32F4xx_StdPeriph_Driver/libstdperiph.a(stm32f4xx_rcc.o)
RCC_PCLK2Config                                   /Users/User/Desktop/STM32F4_Examples/01_Blinky/lib/STM32F4xx_StdPeriph_Driver/libstdperiph.a(stm32f4xx_rcc.o)
RCC_PLLCmd                                        /Users/User/Desktop/STM32F4_Examples/01_Blinky/lib/STM32F4xx_StdPeriph_Driver/libstdperiph.a(stm32f4xx_rcc.o)
RCC_PLLConfig                                     /Users/User/Desktop/STM32F4_Examples/01_Blinky/lib/STM32F4xx_StdPeriph_Driver/libstdperiph.a(stm32f4xx_rcc.o)
RCC_PLLI2SCmd                                     /Users/User/Desktop/STM32F4_Examples/01_Blinky/lib/STM32F4xx_StdPeriph_Driver/libstdperiph.a(stm32f4xx_rcc.o)
RCC_PLLI2SConfig                                  /Users/User/Desktop/STM32F4_Examples/01_Blinky/lib/STM32F4xx_StdPeriph_Driver/libstdperiph.a(stm32f4xx_rcc.o)
RCC_PLLSAICmd                                     /Users/User/Desktop/STM32F4_Examples/01_Blinky/lib/STM32F4xx_StdPeriph_Driver/libstdperiph.a(stm32f4xx_rcc.o)
RCC_PLLSAIConfig                                  /Users/User/Desktop/STM32F4_Examples/01_Blinky/lib/STM32F4xx_StdPeriph_Driver/libstdperiph.a(stm32f4xx_rcc.o)
RCC_RTCCLKCmd                                     /Users/User/Desktop/STM32F4_Examples/01_Blinky/lib/STM32F4xx_StdPeriph_Driver/libstdperiph.a(stm32f4xx_rcc.o)
RCC_RTCCLKConfig                                  /Users/User/Desktop/STM32F4_Examples/01_Blinky/lib/STM32F4xx_StdPeriph_Driver/libstdperiph.a(stm32f4xx_rcc.o)
RCC_SAIBlockACLKConfig                            /Users/User/Desktop/STM32F4_Examples/01_Blinky/lib/STM32F4xx_StdPeriph_Driver/libstdperiph.a(stm32f4xx_rcc.o)
RCC_SAIBlockBCLKConfig                            /Users/User/Desktop/STM32F4_Examples/01_Blinky/lib/STM32F4xx_StdPeriph_Driver/libstdperiph.a(stm32f4xx_rcc.o)
RCC_SAIPLLI2SClkDivConfig                         /Users/User/Desktop/STM32F4_Examples/01_Blinky/lib/STM32F4xx_StdPeriph_Driver/libstdperiph.a(stm32f4xx_rcc.o)
RCC_SAIPLLSAIClkDivConfig                         /Users/User/Desktop/STM32F4_Examples/01_Blinky/lib/STM32F4xx_StdPeriph_Driver/libstdperiph.a(stm32f4xx_rcc.o)
RCC_SYSCLKConfig                                  /Users/User/Desktop/STM32F4_Examples/01_Blinky/lib/STM32F4xx_StdPeriph_Driver/libstdperiph.a(stm32f4xx_rcc.o)
RCC_TIMCLKPresConfig                              /Users/User/Desktop/STM32F4_Examples/01_Blinky/lib/STM32F4xx_StdPeriph_Driver/libstdperiph.a(stm32f4xx_rcc.o)
RCC_WaitForHSEStartUp                             /Users/User/Desktop/STM32F4_Examples/01_Blinky/lib/STM32F4xx_StdPeriph_Driver/libstdperiph.a(stm32f4xx_rcc.o)
RTC_Alarm_IRQHandler                              /Users/User/Desktop/STM32F4_Examples/01_Blinky/build/startup_stm32f4xx.o
RTC_WKUP_IRQHandler                               /Users/User/Desktop/STM32F4_Examples/01_Blinky/build/startup_stm32f4xx.o
Reset_Handler                                     /Users/User/Desktop/STM32F4_Examples/01_Blinky/build/startup_stm32f4xx.o
SDIO_IRQHandler                                   /Users/User/Desktop/STM32F4_Examples/01_Blinky/build/startup_stm32f4xx.o
SPI1_IRQHandler                                   /Users/User/Desktop/STM32F4_Examples/01_Blinky/build/startup_stm32f4xx.o
SPI2_IRQHandler                                   /Users/User/Desktop/STM32F4_Examples/01_Blinky/build/startup_stm32f4xx.o
SPI3_IRQHandler                                   /Users/User/Desktop/STM32F4_Examples/01_Blinky/build/startup_stm32f4xx.o
SVC_Handler                                       /Users/User/Desktop/STM32F4_Examples/01_Blinky/build/startup_stm32f4xx.o
SysTick_Handler                                   /Users/User/Desktop/STM32F4_Examples/01_Blinky/build/main.o
SystemCoreClock                                   /Users/User/Desktop/STM32F4_Examples/01_Blinky/build/system_stm32f4xx.o
                                                  /Users/User/Desktop/STM32F4_Examples/01_Blinky/build/main.o
SystemCoreClockUpdate                             /Users/User/Desktop/STM32F4_Examples/01_Blinky/build/system_stm32f4xx.o
SystemInit                                        /Users/User/Desktop/STM32F4_Examples/01_Blinky/build/system_stm32f4xx.o
                                                  /Users/User/Desktop/STM32F4_Examples/01_Blinky/build/startup_stm32f4xx.o
TAMP_STAMP_IRQHandler                             /Users/User/Desktop/STM32F4_Examples/01_Blinky/build/startup_stm32f4xx.o
TIM1_BRK_TIM9_IRQHandler                          /Users/User/Desktop/STM32F4_Examples/01_Blinky/build/startup_stm32f4xx.o
TIM1_CC_IRQHandler                                /Users/User/Desktop/STM32F4_Examples/01_Blinky/build/startup_stm32f4xx.o
TIM1_TRG_COM_TIM11_IRQHandler                     /Users/User/Desktop/STM32F4_Examples/01_Blinky/build/startup_stm32f4xx.o
TIM1_UP_TIM10_IRQHandler                          /Users/User/Desktop/STM32F4_Examples/01_Blinky/build/startup_stm32f4xx.o
TIM2_IRQHandler                                   /Users/User/Desktop/STM32F4_Examples/01_Blinky/build/startup_stm32f4xx.o
TIM3_IRQHandler                                   /Users/User/Desktop/STM32F4_Examples/01_Blinky/build/startup_stm32f4xx.o
TIM4_IRQHandler                                   /Users/User/Desktop/STM32F4_Examples/01_Blinky/build/startup_stm32f4xx.o
TIM5_IRQHandler                                   /Users/User/Desktop/STM32F4_Examples/01_Blinky/build/startup_stm32f4xx.o
TIM6_DAC_IRQHandler                               /Users/User/Desktop/STM32F4_Examples/01_Blinky/build/startup_stm32f4xx.o
TIM7_IRQHandler                                   /Users/User/Desktop/STM32F4_Examples/01_Blinky/build/startup_stm32f4xx.o
TIM8_BRK_TIM12_IRQHandler                         /Users/User/Desktop/STM32F4_Examples/01_Blinky/build/startup_stm32f4xx.o
TIM8_CC_IRQHandler                                /Users/User/Desktop/STM32F4_Examples/01_Blinky/build/startup_stm32f4xx.o
TIM8_TRG_COM_TIM14_IRQHandler                     /Users/User/Desktop/STM32F4_Examples/01_Blinky/build/startup_stm32f4xx.o
TIM8_UP_TIM13_IRQHandler                          /Users/User/Desktop/STM32F4_Examples/01_Blinky/build/startup_stm32f4xx.o
UART4_IRQHandler                                  /Users/User/Desktop/STM32F4_Examples/01_Blinky/build/startup_stm32f4xx.o
UART5_IRQHandler                                  /Users/User/Desktop/STM32F4_Examples/01_Blinky/build/startup_stm32f4xx.o
USART1_IRQHandler                                 /Users/User/Desktop/STM32F4_Examples/01_Blinky/build/startup_stm32f4xx.o
USART2_IRQHandler                                 /Users/User/Desktop/STM32F4_Examples/01_Blinky/build/startup_stm32f4xx.o
USART3_IRQHandler                                 /Users/User/Desktop/STM32F4_Examples/01_Blinky/build/startup_stm32f4xx.o
USART6_IRQHandler                                 /Users/User/Desktop/STM32F4_Examples/01_Blinky/build/startup_stm32f4xx.o
UsageFault_Handler                                /Users/User/Desktop/STM32F4_Examples/01_Blinky/build/startup_stm32f4xx.o
WWDG_IRQHandler                                   /Users/User/Desktop/STM32F4_Examples/01_Blinky/build/startup_stm32f4xx.o
__bss_end__                                       /Users/User/Desktop/STM32F4_Examples/01_Blinky/build/startup_stm32f4xx.o
__bss_start__                                     /Users/User/Desktop/STM32F4_Examples/01_Blinky/build/startup_stm32f4xx.o
__data_end__                                      /Users/User/Desktop/STM32F4_Examples/01_Blinky/build/startup_stm32f4xx.o
__data_start__                                    /Users/User/Desktop/STM32F4_Examples/01_Blinky/build/startup_stm32f4xx.o
__sidata                                          /Users/User/Desktop/STM32F4_Examples/01_Blinky/build/startup_stm32f4xx.o
_estack                                           /Users/User/Desktop/STM32F4_Examples/01_Blinky/build/startup_stm32f4xx.o
g_pfnVectors                                      /Users/User/Desktop/STM32F4_Examples/01_Blinky/build/startup_stm32f4xx.o
init_GPIO                                         /Users/User/Desktop/STM32F4_Examples/01_Blinky/build/main.o
main                                              /Users/User/Desktop/STM32F4_Examples/01_Blinky/build/main.o
                                                  /Users/User/Desktop/STM32F4_Examples/01_Blinky/build/startup_stm32f4xx.o
msTicks                                           /Users/User/Desktop/STM32F4_Examples/01_Blinky/build/main.o
setSysTick                                        /Users/User/Desktop/STM32F4_Examples/01_Blinky/build/main.o
turnOffLED                                        /Users/User/Desktop/STM32F4_Examples/01_Blinky/build/CortexM4asmOps.o
turnOnLED                                         /Users/User/Desktop/STM32F4_Examples/01_Blinky/build/CortexM4asmOps.o
